; ModuleID = '52/1606.c'
source_filename = "52/1606.c"
target datalayout = "e-m:e-p270:32:32-p271:32:32-p272:64:64-i64:64-f80:128-n8:16:32:64-S128"
target triple = "x86_64-pc-linux-gnu"

@.str = private unnamed_addr constant [6 x i8] c"%d %d\00", align 1
@.str.1 = private unnamed_addr constant [3 x i8] c"%d\00", align 1
@.str.2 = private unnamed_addr constant [4 x i8] c" %d\00", align 1

; Function Attrs: noinline nounwind uwtable
define dso_local void @main() #0 {
  %1 = alloca i32, align 4
  %2 = alloca i32, align 4
  %3 = alloca i32, align 4
  %4 = alloca [10000 x i32], align 16
  %5 = alloca i32*, align 8
  %6 = call i32 (i8*, ...) @__isoc99_scanf(i8* getelementptr inbounds ([6 x i8], [6 x i8]* @.str, i64 0, i64 0), i32* %1, i32* %2)
  store i32 0, i32* %3, align 4
  br label %7

7:                                                ; preds = %16, %0
  %8 = load i32, i32* %3, align 4
  %9 = load i32, i32* %1, align 4
  %10 = icmp slt i32 %8, %9
  br i1 %10, label %11, label %19

11:                                               ; preds = %7
  %12 = load i32, i32* %3, align 4
  %13 = sext i32 %12 to i64
  %14 = getelementptr inbounds [10000 x i32], [10000 x i32]* %4, i64 0, i64 %13
  %15 = call i32 (i8*, ...) @__isoc99_scanf(i8* getelementptr inbounds ([3 x i8], [3 x i8]* @.str.1, i64 0, i64 0), i32* %14)
  br label %16

16:                                               ; preds = %11
  %17 = load i32, i32* %3, align 4
  %18 = add nsw i32 %17, 1
  store i32 %18, i32* %3, align 4
  br label %7

19:                                               ; preds = %7
  %20 = getelementptr inbounds [10000 x i32], [10000 x i32]* %4, i64 0, i64 0
  %21 = load i32, i32* %1, align 4
  %22 = sext i32 %21 to i64
  %23 = getelementptr inbounds i32, i32* %20, i64 %22
  store i32* %23, i32** %5, align 8
  br label %24

24:                                               ; preds = %46, %19
  %25 = load i32*, i32** %5, align 8
  %26 = getelementptr inbounds [10000 x i32], [10000 x i32]* %4, i64 0, i64 0
  %27 = load i32, i32* %1, align 4
  %28 = sext i32 %27 to i64
  %29 = getelementptr inbounds i32, i32* %26, i64 %28
  %30 = load i32, i32* %1, align 4
  %31 = sext i32 %30 to i64
  %32 = getelementptr inbounds i32, i32* %29, i64 %31
  %33 = load i32, i32* %2, align 4
  %34 = sext i32 %33 to i64
  %35 = sub i64 0, %34
  %36 = getelementptr inbounds i32, i32* %32, i64 %35
  %37 = icmp ult i32* %25, %36
  br i1 %37, label %38, label %49

38:                                               ; preds = %24
  %39 = load i32*, i32** %5, align 8
  %40 = load i32, i32* %1, align 4
  %41 = sext i32 %40 to i64
  %42 = sub i64 0, %41
  %43 = getelementptr inbounds i32, i32* %39, i64 %42
  %44 = load i32, i32* %43, align 4
  %45 = load i32*, i32** %5, align 8
  store i32 %44, i32* %45, align 4
  br label %46

46:                                               ; preds = %38
  %47 = load i32*, i32** %5, align 8
  %48 = getelementptr inbounds i32, i32* %47, i32 1
  store i32* %48, i32** %5, align 8
  br label %24

49:                                               ; preds = %24
  %50 = getelementptr inbounds [10000 x i32], [10000 x i32]* %4, i64 0, i64 0
  %51 = load i32, i32* %1, align 4
  %52 = sext i32 %51 to i64
  %53 = getelementptr inbounds i32, i32* %50, i64 %52
  %54 = load i32, i32* %2, align 4
  %55 = sext i32 %54 to i64
  %56 = sub i64 0, %55
  %57 = getelementptr inbounds i32, i32* %53, i64 %56
  store i32* %57, i32** %5, align 8
  %58 = load i32*, i32** %5, align 8
  %59 = load i32, i32* %58, align 4
  %60 = call i32 (i8*, ...) @printf(i8* getelementptr inbounds ([3 x i8], [3 x i8]* @.str.1, i64 0, i64 0), i32 %59)
  %61 = getelementptr inbounds [10000 x i32], [10000 x i32]* %4, i64 0, i64 0
  %62 = load i32, i32* %1, align 4
  %63 = sext i32 %62 to i64
  %64 = getelementptr inbounds i32, i32* %61, i64 %63
  %65 = load i32, i32* %2, align 4
  %66 = sext i32 %65 to i64
  %67 = sub i64 0, %66
  %68 = getelementptr inbounds i32, i32* %64, i64 %67
  %69 = getelementptr inbounds i32, i32* %68, i64 1
  store i32* %69, i32** %5, align 8
  br label %70

70:                                               ; preds = %88, %49
  %71 = load i32*, i32** %5, align 8
  %72 = getelementptr inbounds [10000 x i32], [10000 x i32]* %4, i64 0, i64 0
  %73 = load i32, i32* %1, align 4
  %74 = sext i32 %73 to i64
  %75 = getelementptr inbounds i32, i32* %72, i64 %74
  %76 = load i32, i32* %1, align 4
  %77 = sext i32 %76 to i64
  %78 = getelementptr inbounds i32, i32* %75, i64 %77
  %79 = load i32, i32* %2, align 4
  %80 = sext i32 %79 to i64
  %81 = sub i64 0, %80
  %82 = getelementptr inbounds i32, i32* %78, i64 %81
  %83 = icmp ult i32* %71, %82
  br i1 %83, label %84, label %91

84:                                               ; preds = %70
  %85 = load i32*, i32** %5, align 8
  %86 = load i32, i32* %85, align 4
  %87 = call i32 (i8*, ...) @printf(i8* getelementptr inbounds ([4 x i8], [4 x i8]* @.str.2, i64 0, i64 0), i32 %86)
  br label %88

88:                                               ; preds = %84
  %89 = load i32*, i32** %5, align 8
  %90 = getelementptr inbounds i32, i32* %89, i32 1
  store i32* %90, i32** %5, align 8
  br label %70

91:                                               ; preds = %70
  ret void
}

declare dso_local i32 @__isoc99_scanf(i8*, ...) #1

declare dso_local i32 @printf(i8*, ...) #1


!llvm.module.flags = !{!0}
!llvm.ident = !{!1}

!0 = !{i32 1, !"wchar_size", i32 4}
!1 = !{!"clang version 10.0.0-4ubuntu1 "}
